Certificate:
    Data:
        Version: 3 (0x2)
        Serial Number: 2 (0x2)
        Signature Algorithm: sha256WithRSAEncryption
        Issuer: C=KZ, ST=Manghystau, L=Aktau, O=AUES, OU=HomeUnit, CN=AUES CA/name=Nurlan/emailAddress=ushkilbaynurlan@gmail.com
        Validity
            Not Before: Dec  9 20:33:49 2021 GMT
            Not After : Dec  7 20:33:49 2031 GMT
        Subject: C=KZ, ST=Manghystau, L=Aktau, O=AUES, OU=HomeUnit, CN=user1/name=EasyRSA/emailAddress=ushkilbaynurlan@gmail.com
        Subject Public Key Info:
            Public Key Algorithm: rsaEncryption
                RSA Public-Key: (2048 bit)
                Modulus:
                    00:cb:f9:b5:bd:4e:71:70:76:89:8b:ac:57:36:b6:
                    57:9e:79:96:1e:3b:a4:cf:4f:df:b8:0d:0c:8d:78:
                    43:b9:2b:f6:87:74:e9:8c:41:e8:27:ec:d1:86:c5:
                    dd:69:bf:58:13:07:c9:0e:d4:fa:cf:64:82:7f:04:
                    8e:64:6c:42:f2:ce:3f:87:93:d4:d2:ed:c0:65:5a:
                    a7:b7:df:a5:71:f6:3a:df:72:21:aa:08:1a:67:f9:
                    c8:ae:a1:75:da:7b:52:78:56:fc:72:72:f3:79:ff:
                    23:e0:63:46:7e:fd:ab:6f:dc:d9:d9:f2:91:83:5f:
                    56:90:70:8e:da:1f:73:66:b2:11:87:ae:4c:7e:d7:
                    3d:e6:00:08:c1:ff:03:b4:73:55:06:f9:bb:79:31:
                    c4:12:ea:da:99:84:e2:07:fc:ff:b8:a8:75:e5:e6:
                    ce:fd:db:bb:d1:b5:6d:05:3a:25:99:e9:57:5a:fb:
                    9b:e2:5b:57:de:19:28:c2:0d:a1:2e:c8:95:fd:87:
                    b8:2f:bd:68:56:95:4c:77:56:71:44:ad:1f:a0:d9:
                    c4:85:05:a7:53:38:cb:3f:c7:2b:8d:82:6f:c4:65:
                    0c:c6:fd:70:02:e7:40:b9:89:98:05:18:16:0a:0e:
                    4c:4e:b5:84:6b:32:b0:bd:11:26:61:90:38:26:78:
                    2b:7d
                Exponent: 65537 (0x10001)
        X509v3 extensions:
            X509v3 Basic Constraints: 
                CA:FALSE
            Netscape Comment: 
                Easy-RSA Generated Certificate
            X509v3 Subject Key Identifier: 
                5B:2F:3E:C4:22:53:8B:C7:22:2F:A7:3C:D3:EF:EE:D7:86:1D:7F:57
            X509v3 Authority Key Identifier: 
                keyid:F2:B3:19:3D:2C:5B:93:58:5D:83:AB:A2:C5:1D:E4:D2:61:9A:8B:14
                DirName:/C=KZ/ST=Manghystau/L=Aktau/O=AUES/OU=HomeUnit/CN=AUES CA/name=Nurlan/emailAddress=ushkilbaynurlan@gmail.com
                serial:7F:72:CF:1B:1F:59:3E:23:B2:16:AD:49:D8:9E:42:23:5A:A5:DD:E7

            X509v3 Extended Key Usage: 
                TLS Web Client Authentication
            X509v3 Key Usage: 
                Digital Signature
            X509v3 Subject Alternative Name: 
                DNS:user1
    Signature Algorithm: sha256WithRSAEncryption
         bc:2b:c7:ac:1e:b6:c7:f2:b5:e9:ff:42:77:df:64:85:62:13:
         57:12:ad:b6:ad:5f:55:cd:7c:ee:a1:1a:76:5d:a2:5a:48:0c:
         cd:07:77:37:f3:89:5b:09:4a:f7:b4:b9:e7:10:60:dc:1e:e6:
         4d:36:7a:d2:8d:5a:b9:63:d5:49:3b:37:95:d9:10:4f:a1:0a:
         39:80:ae:41:0d:7f:0c:68:98:71:5f:1d:02:c2:8e:d6:39:71:
         6a:23:c9:ee:07:6e:db:5c:91:f6:4e:9f:d4:ec:ea:e3:2b:d6:
         10:fe:04:bb:cb:75:90:b5:ec:4c:5f:1c:63:3d:4a:b7:ab:bb:
         8e:11:01:c9:40:22:4a:3a:8d:3f:14:bc:e1:88:c2:7c:c6:a5:
         85:ec:cc:dc:e9:2b:52:6d:4a:4f:8b:f0:29:42:6c:6a:9d:85:
         2b:fd:e6:40:b4:48:5a:d5:2c:2d:90:bf:c5:24:c3:9a:fc:c8:
         34:09:a5:c7:93:f5:dd:53:63:3b:eb:fa:57:71:50:e6:2d:b7:
         95:ee:20:d4:2a:c7:47:e7:d9:68:66:06:8c:d5:bd:b4:b0:e0:
         e9:a3:4f:f0:50:7f:0c:e1:30:09:92:38:cc:39:3d:e5:a8:04:
         0e:3c:29:ac:4a:2f:93:3a:9f:0d:98:b9:89:96:68:d0:56:75:
         b2:8a:e4:b0
-----BEGIN CERTIFICATE-----
MIIFNTCCBB2gAwIBAgIBAjANBgkqhkiG9w0BAQsFADCBoTELMAkGA1UEBhMCS1ox
EzARBgNVBAgTCk1hbmdoeXN0YXUxDjAMBgNVBAcTBUFrdGF1MQ0wCwYDVQQKEwRB
VUVTMREwDwYDVQQLEwhIb21lVW5pdDEQMA4GA1UEAxMHQVVFUyBDQTEPMA0GA1UE
KRMGTnVybGFuMSgwJgYJKoZIhvcNAQkBFhl1c2hraWxiYXludXJsYW5AZ21haWwu
Y29tMB4XDTIxMTIwOTIwMzM0OVoXDTMxMTIwNzIwMzM0OVowgaAxCzAJBgNVBAYT
AktaMRMwEQYDVQQIEwpNYW5naHlzdGF1MQ4wDAYDVQQHEwVBa3RhdTENMAsGA1UE
ChMEQVVFUzERMA8GA1UECxMISG9tZVVuaXQxDjAMBgNVBAMTBXVzZXIxMRAwDgYD
VQQpEwdFYXN5UlNBMSgwJgYJKoZIhvcNAQkBFhl1c2hraWxiYXludXJsYW5AZ21h
aWwuY29tMIIBIjANBgkqhkiG9w0BAQEFAAOCAQ8AMIIBCgKCAQEAy/m1vU5xcHaJ
i6xXNrZXnnmWHjukz0/fuA0MjXhDuSv2h3TpjEHoJ+zRhsXdab9YEwfJDtT6z2SC
fwSOZGxC8s4/h5PU0u3AZVqnt9+lcfY633IhqggaZ/nIrqF12ntSeFb8cnLzef8j
4GNGfv2rb9zZ2fKRg19WkHCO2h9zZrIRh65Mftc95gAIwf8DtHNVBvm7eTHEEura
mYTiB/z/uKh15ebO/du70bVtBTolmelXWvub4ltX3hkowg2hLsiV/Ye4L71oVpVM
d1ZxRK0foNnEhQWnUzjLP8crjYJvxGUMxv1wAudAuYmYBRgWCg5MTrWEazKwvREm
YZA4JngrfQIDAQABo4IBdTCCAXEwCQYDVR0TBAIwADAtBglghkgBhvhCAQ0EIBYe
RWFzeS1SU0EgR2VuZXJhdGVkIENlcnRpZmljYXRlMB0GA1UdDgQWBBRbLz7EIlOL
xyIvpzzT7+7Xhh1/VzCB4QYDVR0jBIHZMIHWgBTysxk9LFuTWF2Dq6LFHeTSYZqL
FKGBp6SBpDCBoTELMAkGA1UEBhMCS1oxEzARBgNVBAgTCk1hbmdoeXN0YXUxDjAM
BgNVBAcTBUFrdGF1MQ0wCwYDVQQKEwRBVUVTMREwDwYDVQQLEwhIb21lVW5pdDEQ
MA4GA1UEAxMHQVVFUyBDQTEPMA0GA1UEKRMGTnVybGFuMSgwJgYJKoZIhvcNAQkB
Fhl1c2hraWxiYXludXJsYW5AZ21haWwuY29tghR/cs8bH1k+I7IWrUnYnkIjWqXd
5zATBgNVHSUEDDAKBggrBgEFBQcDAjALBgNVHQ8EBAMCB4AwEAYDVR0RBAkwB4IF
dXNlcjEwDQYJKoZIhvcNAQELBQADggEBALwrx6wetsfyten/QnffZIViE1cSrbat
X1XNfO6hGnZdolpIDM0HdzfziVsJSve0uecQYNwe5k02etKNWrlj1Uk7N5XZEE+h
CjmArkENfwxomHFfHQLCjtY5cWojye4HbttckfZOn9Ts6uMr1hD+BLvLdZC17Exf
HGM9Sreru44RAclAIko6jT8UvOGIwnzGpYXszNzpK1JtSk+L8ClCbGqdhSv95kC0
SFrVLC2Qv8Ukw5r8yDQJpceT9d1TYzvr+ldxUOYtt5XuINQqx0fn2WhmBozVvbSw
4OmjT/BQfwzhMAmSOMw5PeWoBA48KaxKL5M6nw2YuYmWaNBWdbKK5LA=
-----END CERTIFICATE-----
